; Function Attrs: nofree norecurse nosync nounwind memory(argmem: readwrite) uwtable
define internal void @bgr16leToUV_c(ptr noundef writeonly captures(none) %0, ptr noundef writeonly captures(none) %1, ptr readnone captures(none) %2, ptr noundef readonly captures(none) %3, ptr readnone captures(none) %4, i32 noundef %5, ptr noundef readonly captures(none) %6, ptr readnone captures(none) %7) #1 {
  %9 = getelementptr inbounds nuw i8, ptr %6, i64 12
  %10 = load i32, ptr %9, align 4, !tbaa !42
  %11 = shl nsw i32 %10, 11
  %12 = getelementptr inbounds nuw i8, ptr %6, i64 16
  %13 = load i32, ptr %12, align 4, !tbaa !42
  %14 = shl nsw i32 %13, 5
  %15 = getelementptr inbounds nuw i8, ptr %6, i64 20
  %16 = load i32, ptr %15, align 4, !tbaa !42
  %17 = getelementptr inbounds nuw i8, ptr %6, i64 24
  %18 = load i32, ptr %17, align 4, !tbaa !42
  %19 = shl nsw i32 %18, 11
  %20 = getelementptr inbounds nuw i8, ptr %6, i64 28
  %21 = load i32, ptr %20, align 4, !tbaa !42
  %22 = shl nsw i32 %21, 5
  %23 = getelementptr inbounds nuw i8, ptr %6, i64 32
  %24 = load i32, ptr %23, align 4, !tbaa !42
  %25 = icmp sgt i32 %5, 0
  br i1 %25, label %.lr.ph.preheader, label %rgb16_32ToUV_c_template.exit

.lr.ph.preheader:                                 ; preds = %8
  %wide.trip.count = zext nneg i32 %5 to i64
  br label %.lr.ph

.lr.ph:                                           ; preds = %.lr.ph.preheader, %.lr.ph
  %indvars.iv = phi i64 [ 0, %.lr.ph.preheader ], [ %indvars.iv.next, %.lr.ph ]
  %26 = shl nuw nsw i64 %indvars.iv, 1
  %27 = getelementptr inbounds nuw i8, ptr %3, i64 %26
  %28 = load i16, ptr %27, align 1, !tbaa !34
  %29 = zext i16 %28 to i32
  %30 = and i32 %29, 63488
  %31 = and i32 %29, 2016
  %32 = and i32 %29, 31
  %33 = mul nsw i32 %11, %32
  %34 = mul nsw i32 %14, %31
  %35 = mul nsw i32 %30, %16
  %36 = add i32 %34, 1073807360
  %37 = add i32 %36, %33
  %38 = add i32 %37, %35
  %39 = lshr i32 %38, 17
  %40 = trunc nuw nsw i32 %39 to i16
  %41 = getelementptr inbounds nuw i16, ptr %0, i64 %indvars.iv
  store i16 %40, ptr %41, align 2, !tbaa !43
  %42 = mul nsw i32 %19, %32
  %43 = mul nsw i32 %22, %31
  %44 = mul nsw i32 %30, %24
  %45 = add i32 %43, 1073807360
  %46 = add i32 %45, %42
  %47 = add i32 %46, %44
  %48 = lshr i32 %47, 17
  %49 = trunc nuw nsw i32 %48 to i16
  %50 = getelementptr inbounds nuw i16, ptr %1, i64 %indvars.iv
  store i16 %49, ptr %50, align 2, !tbaa !43
  %indvars.iv.next = add nuw nsw i64 %indvars.iv, 1
  %exitcond.not = icmp eq i64 %indvars.iv.next, %wide.trip.count
  br i1 %exitcond.not, label %rgb16_32ToUV_c_template.exit, label %.lr.ph, !llvm.loop !86

rgb16_32ToUV_c_template.exit:                     ; preds = %.lr.ph, %8
  ret void
}